; Function Attrs: nounwind uwtable
define range(i32 -22, 1) i32 @IDASetStepToleranceIC(ptr noundef %0, double noundef %1) local_unnamed_addr #0 {
  %3 = icmp eq ptr %0, null
  br i1 %3, label %4, label %5

4:                                                ; preds = %2
  tail call void (ptr, i32, i32, ptr, ptr, ptr, ...) @IDAProcessError(ptr noundef null, i32 noundef -20, i32 noundef 861, ptr noundef nonnull @__func__.IDASetStepToleranceIC, ptr noundef nonnull @.str, ptr noundef nonnull @.str.1) #9
  br label %10

5:                                                ; preds = %2
  %6 = fcmp ugt double %1, 0.000000e+00
  br i1 %6, label %8, label %7

7:                                                ; preds = %5
  tail call void (ptr, i32, i32, ptr, ptr, ptr, ...) @IDAProcessError(ptr noundef nonnull %0, i32 noundef -22, i32 noundef 869, ptr noundef nonnull @__func__.IDASetStepToleranceIC, ptr noundef nonnull @.str, ptr noundef nonnull @.str.17) #9
  br label %10

8:                                                ; preds = %5
  %9 = getelementptr inbounds nuw i8, ptr %0, i64 1176
  store double %1, ptr %9, align 8
  br label %10

10:                                               ; preds = %8, %7, %4
  %.0 = phi i32 [ -20, %4 ], [ -22, %7 ], [ 0, %8 ]
  ret i32 %.0
}